; ModuleID = '1/2115.c'
source_filename = "1/2115.c"
target datalayout = "e-m:e-p270:32:32-p271:32:32-p272:64:64-i64:64-f80:128-n8:16:32:64-S128"
target triple = "x86_64-pc-linux-gnu"

@count = common dso_local global i32 0, align 4
@.str = private unnamed_addr constant [3 x i8] c"%d\00", align 1
@.str.1 = private unnamed_addr constant [4 x i8] c"%d\0A\00", align 1

; Function Attrs: noinline nounwind uwtable
define dso_local void @fun(i32 %0, i32 %1) #0 {
  %3 = alloca i32, align 4
  %4 = alloca i32, align 4
  %5 = alloca i32, align 4
  store i32 %0, i32* %3, align 4
  store i32 %1, i32* %4, align 4
  %6 = load i32, i32* %3, align 4
  store i32 %6, i32* %5, align 4
  br label %7

7:                                                ; preds = %27, %2
  %8 = load i32, i32* %5, align 4
  %9 = sitofp i32 %8 to double
  %10 = load i32, i32* %4, align 4
  %11 = sitofp i32 %10 to double
  %12 = call double @sqrt(double %11) #3
  %13 = fcmp ole double %9, %12
  br i1 %13, label %14, label %30

14:                                               ; preds = %7
  %15 = load i32, i32* %4, align 4
  %16 = load i32, i32* %5, align 4
  %17 = srem i32 %15, %16
  %18 = icmp eq i32 %17, 0
  br i1 %18, label %19, label %26

19:                                               ; preds = %14
  %20 = load i32, i32* @count, align 4
  %21 = add nsw i32 %20, 1
  store i32 %21, i32* @count, align 4
  %22 = load i32, i32* %5, align 4
  %23 = load i32, i32* %4, align 4
  %24 = load i32, i32* %5, align 4
  %25 = sdiv i32 %23, %24
  call void @fun(i32 %22, i32 %25)
  br label %26

26:                                               ; preds = %19, %14
  br label %27

27:                                               ; preds = %26
  %28 = load i32, i32* %5, align 4
  %29 = add nsw i32 %28, 1
  store i32 %29, i32* %5, align 4
  br label %7

30:                                               ; preds = %7
  ret void
}

; Function Attrs: nounwind
declare dso_local double @sqrt(double) #1

; Function Attrs: noinline nounwind uwtable
define dso_local i32 @main() #0 {
  %1 = alloca i32, align 4
  %2 = alloca i32, align 4
  %3 = alloca i32, align 4
  %4 = alloca i32, align 4
  %5 = alloca i32, align 4
  %6 = alloca i32, align 4
  store i32 0, i32* %1, align 4
  %7 = call i32 (i8*, ...) @__isoc99_scanf(i8* getelementptr inbounds ([3 x i8], [3 x i8]* @.str, i64 0, i64 0), i32* %3)
  store i32 1, i32* %4, align 4
  br label %8

8:                                                ; preds = %41, %0
  %9 = load i32, i32* %4, align 4
  %10 = load i32, i32* %3, align 4
  %11 = icmp sle i32 %9, %10
  br i1 %11, label %12, label %44

12:                                               ; preds = %8
  %13 = call i32 (i8*, ...) @__isoc99_scanf(i8* getelementptr inbounds ([3 x i8], [3 x i8]* @.str, i64 0, i64 0), i32* %5)
  store i32 2, i32* %6, align 4
  br label %14

14:                                               ; preds = %34, %12
  %15 = load i32, i32* %6, align 4
  %16 = sitofp i32 %15 to double
  %17 = load i32, i32* %5, align 4
  %18 = sitofp i32 %17 to double
  %19 = call double @sqrt(double %18) #3
  %20 = fcmp ole double %16, %19
  br i1 %20, label %21, label %37

21:                                               ; preds = %14
  %22 = load i32, i32* %5, align 4
  %23 = load i32, i32* %6, align 4
  %24 = srem i32 %22, %23
  %25 = icmp eq i32 %24, 0
  br i1 %25, label %26, label %33

26:                                               ; preds = %21
  %27 = load i32, i32* @count, align 4
  %28 = add nsw i32 %27, 1
  store i32 %28, i32* @count, align 4
  %29 = load i32, i32* %6, align 4
  %30 = load i32, i32* %5, align 4
  %31 = load i32, i32* %6, align 4
  %32 = sdiv i32 %30, %31
  call void @fun(i32 %29, i32 %32)
  br label %33

33:                                               ; preds = %26, %21
  br label %34

34:                                               ; preds = %33
  %35 = load i32, i32* %6, align 4
  %36 = add nsw i32 %35, 1
  store i32 %36, i32* %6, align 4
  br label %14

37:                                               ; preds = %14
  %38 = load i32, i32* @count, align 4
  %39 = add nsw i32 %38, 1
  %40 = call i32 (i8*, ...) @printf(i8* getelementptr inbounds ([4 x i8], [4 x i8]* @.str.1, i64 0, i64 0), i32 %39)
  store i32 0, i32* @count, align 4
  br label %41

41:                                               ; preds = %37
  %42 = load i32, i32* %4, align 4
  %43 = add nsw i32 %42, 1
  store i32 %43, i32* %4, align 4
  br label %8

44:                                               ; preds = %8
  %45 = load i32, i32* %1, align 4
  ret i32 %45
}

declare dso_local i32 @__isoc99_scanf(i8*, ...) #2

declare dso_local i32 @printf(i8*, ...) #2


!llvm.module.flags = !{!0}
!llvm.ident = !{!1}

!0 = !{i32 1, !"wchar_size", i32 4}
!1 = !{!"clang version 10.0.0-4ubuntu1 "}
